target datalayout = "e-m:e-p270:32:32-p271:32:32-p272:64:64-i64:64-i128:128-f80:128-n8:16:32:64-S128"
target triple = "x86_64-pc-linux-gnu"

%struct.Expr = type { i32 }
%struct.Var = type { %struct.Expr, i32, i16, i32, i32, i32, ptr, i32, i32, i32, i16, i32 }
%struct.ForEachState = type { ptr, i32 }
%struct.PlannerInfo = type { i32, ptr, ptr, i32, ptr, ptr, ptr, ptr, i32, ptr, ptr, ptr, ptr, ptr, ptr, ptr, ptr, i32, ptr, ptr, ptr, ptr, ptr, i8, ptr, ptr, ptr, ptr, ptr, i32, ptr, ptr, ptr, ptr, ptr, ptr, ptr, i32, ptr, ptr, ptr, i32, ptr, ptr, ptr, ptr, ptr, ptr, [8 x ptr], [8 x ptr], ptr, ptr, ptr, ptr, ptr, ptr, ptr, double, double, double, i32, i8, i8, i8, i8, i8, i8, i8, i32, ptr, ptr, i32, i8, i8, i32, ptr, ptr, ptr, ptr, ptr, ptr, i8, ptr }
%struct.List = type { i32, i32, i32, ptr, [0 x %union.ListCell] }
%union.ListCell = type { ptr }
%struct.Node = type { i32 }
%struct.PlaceHolderVar = type { %struct.Expr, ptr, ptr, ptr, i32, i32 }
%struct.NestLoopParam = type { i32, i32, ptr }
%struct.PlaceHolderInfo = type { i32, i32, ptr, ptr, ptr, ptr, i32 }

; Function Attrs: nounwind uwtable
define dso_local ptr @identify_current_nestloop_params(ptr noundef %0, ptr noundef %1) #0 {
  %3 = alloca ptr, align 8
  %4 = alloca ptr, align 8
  %5 = alloca ptr, align 8
  %6 = alloca ptr, align 8
  %7 = alloca %struct.ForEachState, align 8
  %8 = alloca ptr, align 8
  %9 = alloca ptr, align 8
  %10 = alloca ptr, align 8
  store ptr %0, ptr %3, align 8
  store ptr %1, ptr %4, align 8
  call void @llvm.lifetime.start.p0(i64 8, ptr %5) #6
  call void @llvm.lifetime.start.p0(i64 8, ptr %6) #6
  store ptr null, ptr %5, align 8
  call void @llvm.lifetime.start.p0(i64 16, ptr %7) #6
  %11 = getelementptr inbounds nuw %struct.ForEachState, ptr %7, i32 0, i32 0
  %12 = load ptr, ptr %3, align 8
  %13 = getelementptr inbounds nuw %struct.PlannerInfo, ptr %12, i32 0, i32 77
  %14 = load ptr, ptr %13, align 8
  store ptr %14, ptr %11, align 8
  %15 = getelementptr inbounds nuw %struct.ForEachState, ptr %7, i32 0, i32 1
  store i32 0, ptr %15, align 8
  %16 = getelementptr i8, ptr %7, i64 12
  call void @llvm.memset.p0.i64(ptr align 4 %16, i8 0, i64 4, i1 false)
  br label %17

17:                                               ; preds = %127, %2
  %18 = getelementptr inbounds nuw %struct.ForEachState, ptr %7, i32 0, i32 0
  %19 = load ptr, ptr %18, align 8
  %20 = icmp ne ptr %19, null
  br i1 %20, label %21, label %38

21:                                               ; preds = %17
  %22 = getelementptr inbounds nuw %struct.ForEachState, ptr %7, i32 0, i32 1
  %23 = load i32, ptr %22, align 8
  %24 = getelementptr inbounds nuw %struct.ForEachState, ptr %7, i32 0, i32 0
  %25 = load ptr, ptr %24, align 8
  %26 = getelementptr inbounds nuw %struct.List, ptr %25, i32 0, i32 1
  %27 = load i32, ptr %26, align 4
  %28 = icmp slt i32 %23, %27
  br i1 %28, label %29, label %38

29:                                               ; preds = %21
  %30 = getelementptr inbounds nuw %struct.ForEachState, ptr %7, i32 0, i32 0
  %31 = load ptr, ptr %30, align 8
  %32 = getelementptr inbounds nuw %struct.List, ptr %31, i32 0, i32 3
  %33 = load ptr, ptr %32, align 8
  %34 = getelementptr inbounds nuw %struct.ForEachState, ptr %7, i32 0, i32 1
  %35 = load i32, ptr %34, align 8
  %36 = sext i32 %35 to i64
  %37 = getelementptr inbounds %union.ListCell, ptr %33, i64 %36
  store ptr %37, ptr %6, align 8
  br label %39

38:                                               ; preds = %21, %17
  store ptr null, ptr %6, align 8
  br label %39

39:                                               ; preds = %38, %29
  %40 = phi i32 [ 1, %29 ], [ 0, %38 ]
  %41 = icmp ne i32 %40, 0
  br i1 %41, label %43, label %42

42:                                               ; preds = %39
  call void @llvm.lifetime.end.p0(i64 16, ptr %7) #6
  br label %131

43:                                               ; preds = %39
  call void @llvm.lifetime.start.p0(i64 8, ptr %8) #6
  %44 = load ptr, ptr %6, align 8
  %45 = load ptr, ptr %44, align 8
  store ptr %45, ptr %8, align 8
  %46 = load ptr, ptr %8, align 8
  %47 = getelementptr inbounds nuw %struct.NestLoopParam, ptr %46, i32 0, i32 2
  %48 = load ptr, ptr %47, align 8
  %49 = getelementptr inbounds nuw %struct.Node, ptr %48, i32 0, i32 0
  %50 = load i32, ptr %49, align 4
  %51 = icmp eq i32 %50, 6
  br i1 %51, label %52, label %84

52:                                               ; preds = %43
  %53 = load ptr, ptr %8, align 8
  %54 = getelementptr inbounds nuw %struct.NestLoopParam, ptr %53, i32 0, i32 2
  %55 = load ptr, ptr %54, align 8
  %56 = getelementptr inbounds nuw %struct.Var, ptr %55, i32 0, i32 1
  %57 = load i32, ptr %56, align 4
  %58 = load ptr, ptr %4, align 8
  %59 = call zeroext i1 @bms_is_member(i32 noundef %57, ptr noundef %58)
  br i1 %59, label %60, label %84

60:                                               ; preds = %52
  call void @llvm.lifetime.start.p0(i64 8, ptr %9) #6
  %61 = load ptr, ptr %8, align 8
  %62 = getelementptr inbounds nuw %struct.NestLoopParam, ptr %61, i32 0, i32 2
  %63 = load ptr, ptr %62, align 8
  store ptr %63, ptr %9, align 8
  %64 = load ptr, ptr %3, align 8
  %65 = getelementptr inbounds nuw %struct.PlannerInfo, ptr %64, i32 0, i32 77
  %66 = load ptr, ptr %65, align 8
  %67 = getelementptr inbounds nuw %struct.ForEachState, ptr %7, i32 0, i32 1
  %68 = load i32, ptr %67, align 8
  %69 = add i32 %68, -1
  store i32 %69, ptr %67, align 8
  %70 = call ptr @list_delete_nth_cell(ptr noundef %66, i32 noundef %68)
  %71 = getelementptr inbounds nuw %struct.ForEachState, ptr %7, i32 0, i32 0
  store ptr %70, ptr %71, align 8
  %72 = load ptr, ptr %3, align 8
  %73 = getelementptr inbounds nuw %struct.PlannerInfo, ptr %72, i32 0, i32 77
  store ptr %70, ptr %73, align 8
  %74 = load ptr, ptr %9, align 8
  %75 = getelementptr inbounds nuw %struct.Var, ptr %74, i32 0, i32 6
  %76 = load ptr, ptr %75, align 8
  %77 = load ptr, ptr %4, align 8
  %78 = call ptr @bms_intersect(ptr noundef %76, ptr noundef %77)
  %79 = load ptr, ptr %9, align 8
  %80 = getelementptr inbounds nuw %struct.Var, ptr %79, i32 0, i32 6
  store ptr %78, ptr %80, align 8
  %81 = load ptr, ptr %5, align 8
  %82 = load ptr, ptr %8, align 8
  %83 = call ptr @lappend(ptr noundef %81, ptr noundef %82)
  store ptr %83, ptr %5, align 8
  call void @llvm.lifetime.end.p0(i64 8, ptr %9) #6
  br label %126

84:                                               ; preds = %52, %43
  %85 = load ptr, ptr %8, align 8
  %86 = getelementptr inbounds nuw %struct.NestLoopParam, ptr %85, i32 0, i32 2
  %87 = load ptr, ptr %86, align 8
  %88 = getelementptr inbounds nuw %struct.Node, ptr %87, i32 0, i32 0
  %89 = load i32, ptr %88, align 4
  %90 = icmp eq i32 %89, 318
  br i1 %90, label %91, label %125

91:                                               ; preds = %84
  %92 = load ptr, ptr %3, align 8
  %93 = load ptr, ptr %8, align 8
  %94 = getelementptr inbounds nuw %struct.NestLoopParam, ptr %93, i32 0, i32 2
  %95 = load ptr, ptr %94, align 8
  %96 = call ptr @find_placeholder_info(ptr noundef %92, ptr noundef %95)
  %97 = getelementptr inbounds nuw %struct.PlaceHolderInfo, ptr %96, i32 0, i32 3
  %98 = load ptr, ptr %97, align 8
  %99 = load ptr, ptr %4, align 8
  %100 = call zeroext i1 @bms_is_subset(ptr noundef %98, ptr noundef %99)
  br i1 %100, label %101, label %125

101:                                              ; preds = %91
  call void @llvm.lifetime.start.p0(i64 8, ptr %10) #6
  %102 = load ptr, ptr %8, align 8
  %103 = getelementptr inbounds nuw %struct.NestLoopParam, ptr %102, i32 0, i32 2
  %104 = load ptr, ptr %103, align 8
  store ptr %104, ptr %10, align 8
  %105 = load ptr, ptr %3, align 8
  %106 = getelementptr inbounds nuw %struct.PlannerInfo, ptr %105, i32 0, i32 77
  %107 = load ptr, ptr %106, align 8
  %108 = getelementptr inbounds nuw %struct.ForEachState, ptr %7, i32 0, i32 1
  %109 = load i32, ptr %108, align 8
  %110 = add i32 %109, -1
  store i32 %110, ptr %108, align 8
  %111 = call ptr @list_delete_nth_cell(ptr noundef %107, i32 noundef %109)
  %112 = getelementptr inbounds nuw %struct.ForEachState, ptr %7, i32 0, i32 0
  store ptr %111, ptr %112, align 8
  %113 = load ptr, ptr %3, align 8
  %114 = getelementptr inbounds nuw %struct.PlannerInfo, ptr %113, i32 0, i32 77
  store ptr %111, ptr %114, align 8
  %115 = load ptr, ptr %10, align 8
  %116 = getelementptr inbounds nuw %struct.PlaceHolderVar, ptr %115, i32 0, i32 3
  %117 = load ptr, ptr %116, align 8
  %118 = load ptr, ptr %4, align 8
  %119 = call ptr @bms_intersect(ptr noundef %117, ptr noundef %118)
  %120 = load ptr, ptr %10, align 8
  %121 = getelementptr inbounds nuw %struct.PlaceHolderVar, ptr %120, i32 0, i32 3
  store ptr %119, ptr %121, align 8
  %122 = load ptr, ptr %5, align 8
  %123 = load ptr, ptr %8, align 8
  %124 = call ptr @lappend(ptr noundef %122, ptr noundef %123)
  store ptr %124, ptr %5, align 8
  call void @llvm.lifetime.end.p0(i64 8, ptr %10) #6
  br label %125

125:                                              ; preds = %101, %91, %84
  br label %126

126:                                              ; preds = %125, %60
  call void @llvm.lifetime.end.p0(i64 8, ptr %8) #6
  br label %127

127:                                              ; preds = %126
  %128 = getelementptr inbounds nuw %struct.ForEachState, ptr %7, i32 0, i32 1
  %129 = load i32, ptr %128, align 8
  %130 = add i32 %129, 1
  store i32 %130, ptr %128, align 8
  br label %17, !llvm.loop !18

131:                                              ; preds = %42
  %132 = load ptr, ptr %5, align 8
  call void @llvm.lifetime.end.p0(i64 8, ptr %6) #6
  call void @llvm.lifetime.end.p0(i64 8, ptr %5) #6
  ret ptr %132
}