; Function Attrs: nounwind uwtable
define dso_local ptr @identify_current_nestloop_params(ptr noundef %0, ptr noundef %1) local_unnamed_addr #0 {
  %3 = getelementptr inbounds nuw i8, ptr %0, i64 656
  %4 = load ptr, ptr %3, align 8
  %.not36 = icmp eq ptr %4, null
  br i1 %.not36, label %._crit_edge, label %.lr.ph

.lr.ph:                                           ; preds = %2, %40
  %.039 = phi ptr [ %.1, %40 ], [ null, %2 ]
  %.sroa.8.038 = phi i32 [ %41, %40 ], [ 0, %2 ]
  %.sroa.0.037 = phi ptr [ %.sroa.0.1, %40 ], [ %4, %2 ]
  %5 = getelementptr inbounds nuw i8, ptr %.sroa.0.037, i64 4
  %6 = load i32, ptr %5, align 4
  %7 = icmp slt i32 %.sroa.8.038, %6
  br i1 %7, label %8, label %._crit_edge

._crit_edge:                                      ; preds = %40, %.lr.ph, %2
  %.0.lcssa = phi ptr [ null, %2 ], [ %.039, %.lr.ph ], [ %.1, %40 ]
  ret ptr %.0.lcssa

8:                                                ; preds = %.lr.ph
  %9 = getelementptr inbounds nuw i8, ptr %.sroa.0.037, i64 16
  %10 = load ptr, ptr %9, align 8
  %11 = sext i32 %.sroa.8.038 to i64
  %12 = getelementptr inbounds %union.ListCell, ptr %10, i64 %11
  %13 = load ptr, ptr %12, align 8
  %14 = getelementptr inbounds nuw i8, ptr %13, i64 8
  %15 = load ptr, ptr %14, align 8
  %16 = load i32, ptr %15, align 4
  %17 = icmp eq i32 %16, 6
  br i1 %17, label %18, label %22

18:                                               ; preds = %8
  %19 = getelementptr inbounds nuw i8, ptr %15, i64 4
  %20 = load i32, ptr %19, align 4
  %21 = tail call zeroext i1 @bms_is_member(i32 noundef %20, ptr noundef %1) #4
  %.pre = load ptr, ptr %14, align 8
  br i1 %21, label %.sink.split, label %._crit_edge42

._crit_edge42:                                    ; preds = %18
  %.pre43 = load i32, ptr %.pre, align 4
  br label %22

22:                                               ; preds = %._crit_edge42, %8
  %23 = phi i32 [ %.pre43, %._crit_edge42 ], [ %16, %8 ]
  %24 = phi ptr [ %.pre, %._crit_edge42 ], [ %15, %8 ]
  %25 = icmp eq i32 %23, 318
  br i1 %25, label %26, label %40

26:                                               ; preds = %22
  %27 = tail call ptr @find_placeholder_info(ptr noundef %0, ptr noundef nonnull %24) #4
  %28 = getelementptr inbounds nuw i8, ptr %27, i64 16
  %29 = load ptr, ptr %28, align 8
  %30 = tail call zeroext i1 @bms_is_subset(ptr noundef %29, ptr noundef %1) #4
  br i1 %30, label %31, label %40

31:                                               ; preds = %26
  %32 = load ptr, ptr %14, align 8
  br label %.sink.split

.sink.split:                                      ; preds = %18, %31
  %.sink46 = phi ptr [ %32, %31 ], [ %.pre, %18 ]
  %33 = load ptr, ptr %3, align 8
  %34 = add i32 %.sroa.8.038, -1
  %35 = tail call ptr @list_delete_nth_cell(ptr noundef %33, i32 noundef %.sroa.8.038) #4
  store ptr %35, ptr %3, align 8
  %36 = getelementptr inbounds nuw i8, ptr %.sink46, i64 24
  %37 = load ptr, ptr %36, align 8
  %38 = tail call ptr @bms_intersect(ptr noundef %37, ptr noundef %1) #4
  store ptr %38, ptr %36, align 8
  %39 = tail call ptr @lappend(ptr noundef %.039, ptr noundef nonnull %13) #4
  br label %40

40:                                               ; preds = %.sink.split, %22, %26
  %.sroa.0.1 = phi ptr [ %.sroa.0.037, %26 ], [ %.sroa.0.037, %22 ], [ %35, %.sink.split ]
  %.sroa.8.1 = phi i32 [ %.sroa.8.038, %26 ], [ %.sroa.8.038, %22 ], [ %34, %.sink.split ]
  %.1 = phi ptr [ %.039, %26 ], [ %.039, %22 ], [ %39, %.sink.split ]
  %41 = add i32 %.sroa.8.1, 1
  %.not = icmp eq ptr %.sroa.0.1, null
  br i1 %.not, label %._crit_edge, label %.lr.ph, !llvm.loop !11
}